; Function Attrs: mustprogress nofree norecurse nosync nounwind willreturn memory(argmem: write) uwtable
define hidden void @_Z8inf_rootRK12inf_rationalj(ptr dead_on_unwind noalias writable writeonly sret(%class.inf_rational) align 8 captures(none) initializes((0, 64)) %0, ptr noundef nonnull readnone align 8 captures(none) dereferenceable(64) %1, i32 noundef %2) local_unnamed_addr #8 personality ptr @__gxx_personality_v0 {
  %4 = getelementptr inbounds nuw i8, ptr %0, i64 16
  tail call void @llvm.memset.p0.i64(ptr noundef nonnull align 8 dereferenceable(56) %0, i8 0, i64 56, i1 false)
  store i32 1, ptr %4, align 8, !tbaa !8
  %5 = getelementptr inbounds nuw i8, ptr %0, i64 24
  store ptr null, ptr %5, align 8, !tbaa !12
  %6 = getelementptr inbounds nuw i8, ptr %0, i64 36
  store i8 0, ptr %6, align 4
  %7 = getelementptr inbounds nuw i8, ptr %0, i64 48
  store i32 1, ptr %7, align 8, !tbaa !8
  %8 = getelementptr inbounds nuw i8, ptr %0, i64 56
  store ptr null, ptr %8, align 8, !tbaa !12
  ret void
}